target datalayout = "e-m:e-p270:32:32-p271:32:32-p272:64:64-i64:64-i128:128-f80:128-n8:16:32:64-S128"
target triple = "x86_64-pc-linux-gnu"

; Function Attrs: inlinehint nounwind uwtable
define internal i32 @toLitCond(i32 noundef %0, i32 noundef %1) #2 {
  %3 = alloca i32, align 4
  %4 = alloca i32, align 4
  store i32 %0, ptr %3, align 4, !tbaa !17
  store i32 %1, ptr %4, align 4, !tbaa !17
  %5 = load i32, ptr %3, align 4, !tbaa !17
  %6 = load i32, ptr %3, align 4, !tbaa !17
  %7 = add nsw i32 %5, %6
  %8 = load i32, ptr %4, align 4, !tbaa !17
  %9 = icmp ne i32 %8, 0
  %10 = zext i1 %9 to i32
  %11 = add nsw i32 %7, %10
  ret i32 %11
}

; Function Attrs: nounwind uwtable
define i32 @Res_SatAddConst1(ptr noundef %0, i32 noundef %1, i32 noundef %2) #0 {
  %4 = alloca i32, align 4
  %5 = alloca ptr, align 8
  %6 = alloca i32, align 4
  %7 = alloca i32, align 4
  %8 = alloca i32, align 4
  %9 = alloca i32, align 4
  store ptr %0, ptr %5, align 8, !tbaa !23
  store i32 %1, ptr %6, align 4, !tbaa !17
  store i32 %2, ptr %7, align 4, !tbaa !17
  call void @llvm.lifetime.start.p0(i64 4, ptr %8) #7
  %10 = load i32, ptr %6, align 4, !tbaa !17
  %11 = load i32, ptr %7, align 4, !tbaa !17
  %12 = call i32 @toLitCond(i32 noundef %10, i32 noundef %11)
  store i32 %12, ptr %8, align 4, !tbaa !17
  %13 = load ptr, ptr %5, align 8, !tbaa !23
  %14 = getelementptr inbounds i32, ptr %8, i64 1
  %15 = call i32 @sat_solver_addclause(ptr noundef %13, ptr noundef %8, ptr noundef %14)
  %16 = icmp ne i32 %15, 0
  br i1 %16, label %18, label %17

17:                                               ; preds = %3
  store i32 0, ptr %4, align 4
  store i32 1, ptr %9, align 4
  br label %19

18:                                               ; preds = %3
  store i32 1, ptr %4, align 4
  store i32 1, ptr %9, align 4
  br label %19

19:                                               ; preds = %18, %17
  call void @llvm.lifetime.end.p0(i64 4, ptr %8) #7
  %20 = load i32, ptr %4, align 4
  ret i32 %20
}