; Function Attrs: nounwind uwtable
define range(i32 0, 2) i32 @Res_SatAddConst1(ptr noundef %0, i32 noundef %1, i32 noundef %2) local_unnamed_addr #0 {
  %4 = alloca i32, align 4
  call void @llvm.lifetime.start.p0(i64 4, ptr nonnull %4) #7
  %5 = shl nsw i32 %1, 1
  %6 = icmp ne i32 %2, 0
  %7 = zext i1 %6 to i32
  %8 = or disjoint i32 %5, %7
  store i32 %8, ptr %4, align 4, !tbaa !33
  %9 = getelementptr inbounds nuw i8, ptr %4, i64 4
  %10 = call i32 @sat_solver_addclause(ptr noundef %0, ptr noundef nonnull %4, ptr noundef nonnull %9) #7
  %.not = icmp ne i32 %10, 0
  %. = zext i1 %.not to i32
  call void @llvm.lifetime.end.p0(i64 4, ptr nonnull %4) #7
  ret i32 %.
}